
./testcase/bin/mov-c:     file format elf32-i386


Disassembly of section .text:

08049000 <start>:
 8049000:	e9 00 00 00 00       	jmp    8049005 <main>

08049005 <main>:
 8049005:	55                   	push   %ebp
 8049006:	89 e5                	mov    %esp,%ebp
 8049008:	e8 fe 00 00 00       	call   804910b <__x86.get_pc_thunk.dx>
 804900d:	81 c2 f3 2f 00 00    	add    $0x2ff3,%edx
 8049013:	c7 c0 40 c0 04 08    	mov    $0x804c040,%eax
 8049019:	c7 00 00 00 00 00    	movl   $0x0,(%eax)
 804901f:	c7 c0 40 c0 04 08    	mov    $0x804c040,%eax
 8049025:	c7 40 04 01 00 00 00 	movl   $0x1,0x4(%eax)
 804902c:	c7 c0 40 c0 04 08    	mov    $0x804c040,%eax
 8049032:	c7 40 08 02 00 00 00 	movl   $0x2,0x8(%eax)
 8049039:	c7 c0 40 c0 04 08    	mov    $0x804c040,%eax
 804903f:	c7 40 0c 03 00 00 00 	movl   $0x3,0xc(%eax)
 8049046:	c7 c0 40 c0 04 08    	mov    $0x804c040,%eax
 804904c:	c7 40 10 04 00 00 00 	movl   $0x4,0x10(%eax)
 8049053:	c7 c0 40 c0 04 08    	mov    $0x804c040,%eax
 8049059:	8b 48 0c             	mov    0xc(%eax),%ecx
 804905c:	c7 c0 20 c0 04 08    	mov    $0x804c020,%eax
 8049062:	89 08                	mov    %ecx,(%eax)
 8049064:	c7 c0 20 c0 04 08    	mov    $0x804c020,%eax
 804906a:	8b 08                	mov    (%eax),%ecx
 804906c:	c7 c0 40 c0 04 08    	mov    $0x804c040,%eax
 8049072:	89 48 14             	mov    %ecx,0x14(%eax)
 8049075:	c7 c0 40 c0 04 08    	mov    $0x804c040,%eax
 804907b:	8b 00                	mov    (%eax),%eax
 804907d:	85 c0                	test   %eax,%eax
 804907f:	74 06                	je     8049087 <main+0x82>
 8049081:	b8 01 00 00 00       	mov    $0x1,%eax
 8049086:	82 c7 c0             	add    $0xc0,%bh
 8049089:	40                   	inc    %eax
 804908a:	c0 04 08 8b          	rolb   $0x8b,(%eax,%ecx,1)
 804908e:	40                   	inc    %eax
 804908f:	04 83                	add    $0x83,%al
 8049091:	f8                   	clc    
 8049092:	01 74 06 b8          	add    %esi,-0x48(%esi,%eax,1)
 8049096:	01 00                	add    %eax,(%eax)
 8049098:	00 00                	add    %al,(%eax)
 804909a:	82 c7 c0             	add    $0xc0,%bh
 804909d:	40                   	inc    %eax
 804909e:	c0 04 08 8b          	rolb   $0x8b,(%eax,%ecx,1)
 80490a2:	40                   	inc    %eax
 80490a3:	08 83 f8 02 74 06    	or     %al,0x67402f8(%ebx)
 80490a9:	b8 01 00 00 00       	mov    $0x1,%eax
 80490ae:	82 c7 c0             	add    $0xc0,%bh
 80490b1:	40                   	inc    %eax
 80490b2:	c0 04 08 8b          	rolb   $0x8b,(%eax,%ecx,1)
 80490b6:	40                   	inc    %eax
 80490b7:	0c 83                	or     $0x83,%al
 80490b9:	f8                   	clc    
 80490ba:	03 74 06 b8          	add    -0x48(%esi,%eax,1),%esi
 80490be:	01 00                	add    %eax,(%eax)
 80490c0:	00 00                	add    %al,(%eax)
 80490c2:	82 c7 c0             	add    $0xc0,%bh
 80490c5:	40                   	inc    %eax
 80490c6:	c0 04 08 8b          	rolb   $0x8b,(%eax,%ecx,1)
 80490ca:	40                   	inc    %eax
 80490cb:	10 83 f8 04 74 06    	adc    %al,0x67404f8(%ebx)
 80490d1:	b8 01 00 00 00       	mov    $0x1,%eax
 80490d6:	82 c7 c0             	add    $0xc0,%bh
 80490d9:	20 c0                	and    %al,%al
 80490db:	04 08                	add    $0x8,%al
 80490dd:	8b 00                	mov    (%eax),%eax
 80490df:	83 f8 03             	cmp    $0x3,%eax
 80490e2:	74 06                	je     80490ea <main+0xe5>
 80490e4:	b8 01 00 00 00       	mov    $0x1,%eax
 80490e9:	82 c7 c0             	add    $0xc0,%bh
 80490ec:	40                   	inc    %eax
 80490ed:	c0 04 08 8b          	rolb   $0x8b,(%eax,%ecx,1)
 80490f1:	40                   	inc    %eax
 80490f2:	14 83                	adc    $0x83,%al
 80490f4:	f8                   	clc    
 80490f5:	03 74 06 b8          	add    -0x48(%esi,%eax,1),%esi
 80490f9:	01 00                	add    %eax,(%eax)
 80490fb:	00 00                	add    %al,(%eax)
 80490fd:	82 b8 00 00 00 00 82 	cmpb   $0x82,0x0(%eax)
 8049104:	b8 00 00 00 00       	mov    $0x0,%eax
 8049109:	5d                   	pop    %ebp
 804910a:	c3                   	ret    

0804910b <__x86.get_pc_thunk.dx>:
 804910b:	8b 14 24             	mov    (%esp),%edx
 804910e:	c3                   	ret    
